target datalayout = "e-m:e-p270:32:32-p271:32:32-p272:64:64-i64:64-i128:128-f80:128-n8:16:32:64-S128"
target triple = "x86_64-pc-linux-gnu"

%"class.Imath_2_5::Vec2.6" = type { float, float }
%"class.cv::ExrDecoder" = type { %"class.cv::BaseImageDecoder", ptr, i32, %"class.Imath_2_5::Box", i8, ptr, ptr, ptr, ptr, %"struct.Imf_2_5::Chromaticities", i32, i8, i8, i8, i8 }
%"class.cv::BaseImageDecoder" = type { ptr, i32, i32, i32, i32, %"class.std::__cxx11::basic_string", %"class.std::__cxx11::basic_string", %"class.cv::Mat", i8, i8, [6 x i8], %"class.cv::ExifReader" }
%"class.std::__cxx11::basic_string" = type { %"struct.std::__cxx11::basic_string<char>::_Alloc_hider", i64, %union.anon }
%"struct.std::__cxx11::basic_string<char>::_Alloc_hider" = type { ptr }
%union.anon = type { i64, [8 x i8] }
%"class.cv::Mat" = type { i32, i32, i32, i32, ptr, ptr, ptr, ptr, ptr, ptr, %"struct.cv::MatSize", %"struct.cv::MatStep" }
%"struct.cv::MatSize" = type { ptr }
%"struct.cv::MatStep" = type { ptr, [2 x i64] }
%"class.cv::ExifReader" = type <{ %"class.std::vector", %"class.std::map", i32, [4 x i8] }>
%"class.std::vector" = type { %"struct.std::_Vector_base" }
%"struct.std::_Vector_base" = type { %"struct.std::_Vector_base<unsigned char, std::allocator<unsigned char>>::_Vector_impl" }
%"struct.std::_Vector_base<unsigned char, std::allocator<unsigned char>>::_Vector_impl" = type { %"struct.std::_Vector_base<unsigned char, std::allocator<unsigned char>>::_Vector_impl_data" }
%"struct.std::_Vector_base<unsigned char, std::allocator<unsigned char>>::_Vector_impl_data" = type { ptr, ptr, ptr }
%"class.std::map" = type { %"class.std::_Rb_tree" }
%"class.std::_Rb_tree" = type { %"struct.std::_Rb_tree<int, std::pair<const int, cv::ExifEntry_t>, std::_Select1st<std::pair<const int, cv::ExifEntry_t>>, std::less<int>>::_Rb_tree_impl" }
%"struct.std::_Rb_tree<int, std::pair<const int, cv::ExifEntry_t>, std::_Select1st<std::pair<const int, cv::ExifEntry_t>>, std::less<int>>::_Rb_tree_impl" = type { %"struct.std::_Rb_tree_key_compare", %"struct.std::_Rb_tree_header" }
%"struct.std::_Rb_tree_key_compare" = type { %"struct.std::less" }
%"struct.std::less" = type { i8 }
%"struct.std::_Rb_tree_header" = type { %"struct.std::_Rb_tree_node_base", i64 }
%"struct.std::_Rb_tree_node_base" = type { i32, ptr, ptr, ptr }
%"class.Imath_2_5::Box" = type { %"class.Imath_2_5::Vec2", %"class.Imath_2_5::Vec2" }
%"class.Imath_2_5::Vec2" = type { i32, i32 }
%"struct.Imf_2_5::Chromaticities" = type { %"class.Imath_2_5::Vec2.6", %"class.Imath_2_5::Vec2.6", %"class.Imath_2_5::Vec2.6", %"class.Imath_2_5::Vec2.6" }

; Function Attrs: mustprogress nounwind uwtable
define linkonce_odr hidden noundef nonnull align 4 dereferenceable(4) ptr @_ZN9Imath_2_54Vec2IfEixEi(ptr noundef nonnull align 4 dereferenceable(8) %0, i32 noundef %1) #5 comdat align 2 {
  %3 = alloca ptr, align 8
  %4 = alloca i32, align 4
  store ptr %0, ptr %3, align 8
  store i32 %1, ptr %4, align 4
  %5 = load ptr, ptr %3, align 8
  %6 = getelementptr inbounds %"class.Imath_2_5::Vec2.6", ptr %5, i32 0, i32 0
  %7 = load i32, ptr %4, align 4
  %8 = sext i32 %7 to i64
  %9 = getelementptr inbounds float, ptr %6, i64 %8
  ret ptr %9
}

; Function Attrs: mustprogress uwtable
define hidden void @_ZN2cv10ExrDecoder9RGBToGrayEPfS1_(ptr noundef nonnull align 8 dereferenceable(376) %0, ptr noundef %1, ptr noundef %2) #4 align 2 {
  %4 = alloca ptr, align 8
  %5 = alloca ptr, align 8
  %6 = alloca ptr, align 8
  %7 = alloca i32, align 4
  %8 = alloca i32, align 4
  %9 = alloca ptr, align 8
  %10 = alloca i32, align 4
  %11 = alloca i32, align 4
  %12 = alloca ptr, align 8
  %13 = alloca i32, align 4
  %14 = alloca ptr, align 8
  %15 = alloca i32, align 4
  %16 = alloca i32, align 4
  %17 = alloca ptr, align 8
  %18 = alloca i32, align 4
  %19 = alloca i32, align 4
  store ptr %0, ptr %4, align 8
  store ptr %1, ptr %5, align 8
  store ptr %2, ptr %6, align 8
  %20 = load ptr, ptr %4, align 8
  %21 = getelementptr inbounds %"class.cv::ExrDecoder", ptr %20, i32 0, i32 2
  %22 = load i32, ptr %21, align 8
  %23 = icmp eq i32 %22, 2
  br i1 %23, label %24, label %129

24:                                               ; preds = %3
  %25 = getelementptr inbounds %"class.cv::ExrDecoder", ptr %20, i32 0, i32 11
  %26 = load i8, ptr %25, align 4
  %27 = trunc i8 %26 to i1
  br i1 %27, label %28, label %77

28:                                               ; preds = %24
  store i32 0, ptr %7, align 4
  store i32 0, ptr %8, align 4
  br label %29

29:                                               ; preds = %71, %28
  %30 = load i32, ptr %7, align 4
  %31 = getelementptr inbounds %"class.cv::BaseImageDecoder", ptr %20, i32 0, i32 1
  %32 = load i32, ptr %31, align 8
  %33 = icmp slt i32 %30, %32
  br i1 %33, label %34, label %76

34:                                               ; preds = %29
  %35 = load ptr, ptr %5, align 8
  %36 = load i32, ptr %8, align 4
  %37 = sext i32 %36 to i64
  %38 = getelementptr inbounds float, ptr %35, i64 %37
  %39 = load float, ptr %38, align 4
  %40 = getelementptr inbounds %"class.cv::ExrDecoder", ptr %20, i32 0, i32 9
  %41 = getelementptr inbounds %"struct.Imf_2_5::Chromaticities", ptr %40, i32 0, i32 2
  %42 = call noundef nonnull align 4 dereferenceable(4) ptr @_ZN9Imath_2_54Vec2IfEixEi(ptr noundef nonnull align 4 dereferenceable(8) %41, i32 noundef 0)
  %43 = load float, ptr %42, align 4
  %44 = load ptr, ptr %5, align 8
  %45 = load i32, ptr %8, align 4
  %46 = add nsw i32 %45, 1
  %47 = sext i32 %46 to i64
  %48 = getelementptr inbounds float, ptr %44, i64 %47
  %49 = load float, ptr %48, align 4
  %50 = getelementptr inbounds %"class.cv::ExrDecoder", ptr %20, i32 0, i32 9
  %51 = getelementptr inbounds %"struct.Imf_2_5::Chromaticities", ptr %50, i32 0, i32 1
  %52 = call noundef nonnull align 4 dereferenceable(4) ptr @_ZN9Imath_2_54Vec2IfEixEi(ptr noundef nonnull align 4 dereferenceable(8) %51, i32 noundef 0)
  %53 = load float, ptr %52, align 4
  %54 = fmul float %49, %53
  %55 = call float @llvm.fmuladd.f32(float %39, float %43, float %54)
  %56 = load ptr, ptr %5, align 8
  %57 = load i32, ptr %8, align 4
  %58 = add nsw i32 %57, 2
  %59 = sext i32 %58 to i64
  %60 = getelementptr inbounds float, ptr %56, i64 %59
  %61 = load float, ptr %60, align 4
  %62 = getelementptr inbounds %"class.cv::ExrDecoder", ptr %20, i32 0, i32 9
  %63 = getelementptr inbounds %"struct.Imf_2_5::Chromaticities", ptr %62, i32 0, i32 0
  %64 = call noundef nonnull align 4 dereferenceable(4) ptr @_ZN9Imath_2_54Vec2IfEixEi(ptr noundef nonnull align 4 dereferenceable(8) %63, i32 noundef 0)
  %65 = load float, ptr %64, align 4
  %66 = call float @llvm.fmuladd.f32(float %61, float %65, float %55)
  %67 = load ptr, ptr %6, align 8
  %68 = load i32, ptr %7, align 4
  %69 = sext i32 %68 to i64
  %70 = getelementptr inbounds float, ptr %67, i64 %69
  store float %66, ptr %70, align 4
  br label %71

71:                                               ; preds = %34
  %72 = load i32, ptr %7, align 4
  %73 = add nsw i32 %72, 1
  store i32 %73, ptr %7, align 4
  %74 = load i32, ptr %8, align 4
  %75 = add nsw i32 %74, 3
  store i32 %75, ptr %8, align 4
  br label %29, !llvm.loop !20

76:                                               ; preds = %29
  br label %128

77:                                               ; preds = %24
  %78 = load ptr, ptr %6, align 8
  store ptr %78, ptr %9, align 8
  store i32 0, ptr %10, align 4
  store i32 0, ptr %11, align 4
  br label %79

79:                                               ; preds = %122, %77
  %80 = load i32, ptr %10, align 4
  %81 = getelementptr inbounds %"class.cv::BaseImageDecoder", ptr %20, i32 0, i32 1
  %82 = load i32, ptr %81, align 8
  %83 = icmp slt i32 %80, %82
  br i1 %83, label %84, label %127

84:                                               ; preds = %79
  %85 = load ptr, ptr %5, align 8
  %86 = load i32, ptr %11, align 4
  %87 = sext i32 %86 to i64
  %88 = getelementptr inbounds float, ptr %85, i64 %87
  %89 = load float, ptr %88, align 4
  %90 = getelementptr inbounds %"class.cv::ExrDecoder", ptr %20, i32 0, i32 9
  %91 = getelementptr inbounds %"struct.Imf_2_5::Chromaticities", ptr %90, i32 0, i32 2
  %92 = call noundef nonnull align 4 dereferenceable(4) ptr @_ZN9Imath_2_54Vec2IfEixEi(ptr noundef nonnull align 4 dereferenceable(8) %91, i32 noundef 0)
  %93 = load float, ptr %92, align 4
  %94 = load ptr, ptr %5, align 8
  %95 = load i32, ptr %11, align 4
  %96 = add nsw i32 %95, 1
  %97 = sext i32 %96 to i64
  %98 = getelementptr inbounds float, ptr %94, i64 %97
  %99 = load float, ptr %98, align 4
  %100 = getelementptr inbounds %"class.cv::ExrDecoder", ptr %20, i32 0, i32 9
  %101 = getelementptr inbounds %"struct.Imf_2_5::Chromaticities", ptr %100, i32 0, i32 1
  %102 = call noundef nonnull align 4 dereferenceable(4) ptr @_ZN9Imath_2_54Vec2IfEixEi(ptr noundef nonnull align 4 dereferenceable(8) %101, i32 noundef 0)
  %103 = load float, ptr %102, align 4
  %104 = fmul float %99, %103
  %105 = call float @llvm.fmuladd.f32(float %89, float %93, float %104)
  %106 = load ptr, ptr %5, align 8
  %107 = load i32, ptr %11, align 4
  %108 = add nsw i32 %107, 2
  %109 = sext i32 %108 to i64
  %110 = getelementptr inbounds float, ptr %106, i64 %109
  %111 = load float, ptr %110, align 4
  %112 = getelementptr inbounds %"class.cv::ExrDecoder", ptr %20, i32 0, i32 9
  %113 = getelementptr inbounds %"struct.Imf_2_5::Chromaticities", ptr %112, i32 0, i32 0
  %114 = call noundef nonnull align 4 dereferenceable(4) ptr @_ZN9Imath_2_54Vec2IfEixEi(ptr noundef nonnull align 4 dereferenceable(8) %113, i32 noundef 0)
  %115 = load float, ptr %114, align 4
  %116 = call float @llvm.fmuladd.f32(float %111, float %115, float %105)
  %117 = fptoui float %116 to i8
  %118 = load ptr, ptr %9, align 8
  %119 = load i32, ptr %10, align 4
  %120 = sext i32 %119 to i64
  %121 = getelementptr inbounds i8, ptr %118, i64 %120
  store i8 %117, ptr %121, align 1
  br label %122

122:                                              ; preds = %84
  %123 = load i32, ptr %10, align 4
  %124 = add nsw i32 %123, 1
  store i32 %124, ptr %10, align 4
  %125 = load i32, ptr %11, align 4
  %126 = add nsw i32 %125, 3
  store i32 %126, ptr %11, align 4
  br label %79, !llvm.loop !21

127:                                              ; preds = %79
  br label %128

128:                                              ; preds = %127, %76
  br label %262

129:                                              ; preds = %3
  %130 = getelementptr inbounds %"class.cv::ExrDecoder", ptr %20, i32 0, i32 11
  %131 = load i8, ptr %130, align 4
  %132 = trunc i8 %131 to i1
  br i1 %132, label %133, label %205

133:                                              ; preds = %129
  %134 = load ptr, ptr %5, align 8
  store ptr %134, ptr %12, align 8
  store i32 0, ptr %13, align 4
  br label %135

135:                                              ; preds = %148, %133
  %136 = load i32, ptr %13, align 4
  %137 = getelementptr inbounds %"class.cv::BaseImageDecoder", ptr %20, i32 0, i32 1
  %138 = load i32, ptr %137, align 8
  %139 = mul nsw i32 %138, 3
  %140 = icmp slt i32 %136, %139
  br i1 %140, label %141, label %151

141:                                              ; preds = %135
  %142 = load ptr, ptr %12, align 8
  %143 = load i32, ptr %13, align 4
  %144 = sext i32 %143 to i64
  %145 = getelementptr inbounds i32, ptr %142, i64 %144
  %146 = load i32, ptr %145, align 4
  %147 = sub i32 %146, -2147483648
  store i32 %147, ptr %145, align 4
  br label %148

148:                                              ; preds = %141
  %149 = load i32, ptr %13, align 4
  %150 = add nsw i32 %149, 1
  store i32 %150, ptr %13, align 4
  br label %135, !llvm.loop !22

151:                                              ; preds = %135
  %152 = load ptr, ptr %5, align 8
  store ptr %152, ptr %14, align 8
  store i32 0, ptr %15, align 4
  store i32 0, ptr %16, align 4
  br label %153

153:                                              ; preds = %199, %151
  %154 = load i32, ptr %15, align 4
  %155 = getelementptr inbounds %"class.cv::BaseImageDecoder", ptr %20, i32 0, i32 1
  %156 = load i32, ptr %155, align 8
  %157 = icmp slt i32 %154, %156
  br i1 %157, label %158, label %204

158:                                              ; preds = %153
  %159 = load ptr, ptr %14, align 8
  %160 = load i32, ptr %16, align 4
  %161 = sext i32 %160 to i64
  %162 = getelementptr inbounds i32, ptr %159, i64 %161
  %163 = load i32, ptr %162, align 4
  %164 = sitofp i32 %163 to float
  %165 = getelementptr inbounds %"class.cv::ExrDecoder", ptr %20, i32 0, i32 9
  %166 = getelementptr inbounds %"struct.Imf_2_5::Chromaticities", ptr %165, i32 0, i32 2
  %167 = call noundef nonnull align 4 dereferenceable(4) ptr @_ZN9Imath_2_54Vec2IfEixEi(ptr noundef nonnull align 4 dereferenceable(8) %166, i32 noundef 0)
  %168 = load float, ptr %167, align 4
  %169 = load ptr, ptr %14, align 8
  %170 = load i32, ptr %16, align 4
  %171 = add nsw i32 %170, 1
  %172 = sext i32 %171 to i64
  %173 = getelementptr inbounds i32, ptr %169, i64 %172
  %174 = load i32, ptr %173, align 4
  %175 = sitofp i32 %174 to float
  %176 = getelementptr inbounds %"class.cv::ExrDecoder", ptr %20, i32 0, i32 9
  %177 = getelementptr inbounds %"struct.Imf_2_5::Chromaticities", ptr %176, i32 0, i32 1
  %178 = call noundef nonnull align 4 dereferenceable(4) ptr @_ZN9Imath_2_54Vec2IfEixEi(ptr noundef nonnull align 4 dereferenceable(8) %177, i32 noundef 0)
  %179 = load float, ptr %178, align 4
  %180 = fmul float %175, %179
  %181 = call float @llvm.fmuladd.f32(float %164, float %168, float %180)
  %182 = load ptr, ptr %14, align 8
  %183 = load i32, ptr %16, align 4
  %184 = add nsw i32 %183, 2
  %185 = sext i32 %184 to i64
  %186 = getelementptr inbounds i32, ptr %182, i64 %185
  %187 = load i32, ptr %186, align 4
  %188 = sitofp i32 %187 to float
  %189 = getelementptr inbounds %"class.cv::ExrDecoder", ptr %20, i32 0, i32 9
  %190 = getelementptr inbounds %"struct.Imf_2_5::Chromaticities", ptr %189, i32 0, i32 0
  %191 = call noundef nonnull align 4 dereferenceable(4) ptr @_ZN9Imath_2_54Vec2IfEixEi(ptr noundef nonnull align 4 dereferenceable(8) %190, i32 noundef 0)
  %192 = load float, ptr %191, align 4
  %193 = call float @llvm.fmuladd.f32(float %188, float %192, float %181)
  %194 = fptosi float %193 to i32
  %195 = load ptr, ptr %6, align 8
  %196 = load i32, ptr %15, align 4
  %197 = sext i32 %196 to i64
  %198 = getelementptr inbounds i32, ptr %195, i64 %197
  store i32 %194, ptr %198, align 4
  br label %199

199:                                              ; preds = %158
  %200 = load i32, ptr %15, align 4
  %201 = add nsw i32 %200, 1
  store i32 %201, ptr %15, align 4
  %202 = load i32, ptr %16, align 4
  %203 = add nsw i32 %202, 3
  store i32 %203, ptr %16, align 4
  br label %153, !llvm.loop !23

204:                                              ; preds = %153
  br label %261

205:                                              ; preds = %129
  %206 = load ptr, ptr %5, align 8
  store ptr %206, ptr %17, align 8
  store i32 0, ptr %18, align 4
  store i32 0, ptr %19, align 4
  br label %207

207:                                              ; preds = %255, %205
  %208 = load i32, ptr %18, align 4
  %209 = getelementptr inbounds %"class.cv::BaseImageDecoder", ptr %20, i32 0, i32 1
  %210 = load i32, ptr %209, align 8
  %211 = icmp slt i32 %208, %210
  br i1 %211, label %212, label %260

212:                                              ; preds = %207
  %213 = load ptr, ptr %17, align 8
  %214 = load i32, ptr %19, align 4
  %215 = sext i32 %214 to i64
  %216 = getelementptr inbounds i32, ptr %213, i64 %215
  %217 = load i32, ptr %216, align 4
  %218 = uitofp i32 %217 to float
  %219 = getelementptr inbounds %"class.cv::ExrDecoder", ptr %20, i32 0, i32 9
  %220 = getelementptr inbounds %"struct.Imf_2_5::Chromaticities", ptr %219, i32 0, i32 2
  %221 = call noundef nonnull align 4 dereferenceable(4) ptr @_ZN9Imath_2_54Vec2IfEixEi(ptr noundef nonnull align 4 dereferenceable(8) %220, i32 noundef 0)
  %222 = load float, ptr %221, align 4
  %223 = load ptr, ptr %17, align 8
  %224 = load i32, ptr %19, align 4
  %225 = add nsw i32 %224, 1
  %226 = sext i32 %225 to i64
  %227 = getelementptr inbounds i32, ptr %223, i64 %226
  %228 = load i32, ptr %227, align 4
  %229 = uitofp i32 %228 to float
  %230 = getelementptr inbounds %"class.cv::ExrDecoder", ptr %20, i32 0, i32 9
  %231 = getelementptr inbounds %"struct.Imf_2_5::Chromaticities", ptr %230, i32 0, i32 1
  %232 = call noundef nonnull align 4 dereferenceable(4) ptr @_ZN9Imath_2_54Vec2IfEixEi(ptr noundef nonnull align 4 dereferenceable(8) %231, i32 noundef 0)
  %233 = load float, ptr %232, align 4
  %234 = fmul float %229, %233
  %235 = call float @llvm.fmuladd.f32(float %218, float %222, float %234)
  %236 = load ptr, ptr %17, align 8
  %237 = load i32, ptr %19, align 4
  %238 = add nsw i32 %237, 2
  %239 = sext i32 %238 to i64
  %240 = getelementptr inbounds i32, ptr %236, i64 %239
  %241 = load i32, ptr %240, align 4
  %242 = uitofp i32 %241 to float
  %243 = getelementptr inbounds %"class.cv::ExrDecoder", ptr %20, i32 0, i32 9
  %244 = getelementptr inbounds %"struct.Imf_2_5::Chromaticities", ptr %243, i32 0, i32 0
  %245 = call noundef nonnull align 4 dereferenceable(4) ptr @_ZN9Imath_2_54Vec2IfEixEi(ptr noundef nonnull align 4 dereferenceable(8) %244, i32 noundef 0)
  %246 = load float, ptr %245, align 4
  %247 = call float @llvm.fmuladd.f32(float %242, float %246, float %235)
  %248 = fpext float %247 to double
  %249 = fmul double %248, 0x3E70000000000000
  %250 = fptoui double %249 to i8
  %251 = load ptr, ptr %6, align 8
  %252 = load i32, ptr %18, align 4
  %253 = sext i32 %252 to i64
  %254 = getelementptr inbounds i8, ptr %251, i64 %253
  store i8 %250, ptr %254, align 1
  br label %255

255:                                              ; preds = %212
  %256 = load i32, ptr %18, align 4
  %257 = add nsw i32 %256, 1
  store i32 %257, ptr %18, align 4
  %258 = load i32, ptr %19, align 4
  %259 = add nsw i32 %258, 3
  store i32 %259, ptr %19, align 4
  br label %207, !llvm.loop !24

260:                                              ; preds = %207
  br label %261

261:                                              ; preds = %260, %204
  br label %262

262:                                              ; preds = %261, %128
  ret void
}