; Function Attrs: mustprogress nofree norecurse nosync nounwind memory(argmem: readwrite) uwtable
define hidden void @_ZN2cv10ExrDecoder9RGBToGrayEPfS1_(ptr nocapture noundef nonnull readonly align 8 dereferenceable(376) %0, ptr nocapture noundef %1, ptr nocapture noundef writeonly %2) local_unnamed_addr #12 align 2 {
  %4 = getelementptr inbounds i8, ptr %0, i64 280
  %5 = load i32, ptr %4, align 8
  %6 = icmp eq i32 %5, 2
  %7 = getelementptr inbounds i8, ptr %0, i64 372
  %8 = load i8, ptr %7, align 4
  %9 = trunc i8 %8 to i1
  %10 = getelementptr inbounds i8, ptr %0, i64 8
  %11 = load i32, ptr %10, align 8
  %12 = icmp sgt i32 %11, 0
  br i1 %6, label %13, label %55

13:                                               ; preds = %3
  br i1 %9, label %.preheader, label %.preheader60

.preheader60:                                     ; preds = %13
  br i1 %12, label %.lr.ph76, label %.loopexit

.lr.ph76:                                         ; preds = %.preheader60
  %14 = getelementptr inbounds i8, ptr %0, i64 336
  %15 = getelementptr inbounds i8, ptr %0, i64 352
  %16 = getelementptr inbounds i8, ptr %0, i64 344
  br label %37

.preheader:                                       ; preds = %13
  br i1 %12, label %.lr.ph79, label %.loopexit

.lr.ph79:                                         ; preds = %.preheader
  %17 = getelementptr inbounds i8, ptr %0, i64 336
  %18 = getelementptr inbounds i8, ptr %0, i64 352
  %19 = getelementptr inbounds i8, ptr %0, i64 344
  br label %20

20:                                               ; preds = %.lr.ph79, %20
  %indvars.iv107 = phi i64 [ 0, %.lr.ph79 ], [ %indvars.iv.next108, %20 ]
  %indvars.iv105 = phi i64 [ 0, %.lr.ph79 ], [ %indvars.iv.next106, %20 ]
  %21 = getelementptr inbounds float, ptr %1, i64 %indvars.iv107
  %22 = load float, ptr %21, align 4
  %23 = load float, ptr %18, align 8
  %24 = getelementptr inbounds i8, ptr %21, i64 4
  %25 = load float, ptr %24, align 4
  %26 = load float, ptr %19, align 8
  %27 = fmul float %25, %26
  %28 = tail call float @llvm.fmuladd.f32(float %22, float %23, float %27)
  %29 = getelementptr inbounds i8, ptr %21, i64 8
  %30 = load float, ptr %29, align 4
  %31 = load float, ptr %17, align 8
  %32 = tail call float @llvm.fmuladd.f32(float %30, float %31, float %28)
  %33 = getelementptr inbounds float, ptr %2, i64 %indvars.iv105
  store float %32, ptr %33, align 4
  %indvars.iv.next106 = add nuw nsw i64 %indvars.iv105, 1
  %indvars.iv.next108 = add nuw nsw i64 %indvars.iv107, 3
  %34 = load i32, ptr %10, align 8
  %35 = sext i32 %34 to i64
  %36 = icmp slt i64 %indvars.iv.next106, %35
  br i1 %36, label %20, label %.loopexit, !llvm.loop !24

37:                                               ; preds = %.lr.ph76, %37
  %indvars.iv100 = phi i64 [ 0, %.lr.ph76 ], [ %indvars.iv.next101, %37 ]
  %indvars.iv98 = phi i64 [ 0, %.lr.ph76 ], [ %indvars.iv.next99, %37 ]
  %38 = getelementptr inbounds float, ptr %1, i64 %indvars.iv100
  %39 = load float, ptr %38, align 4
  %40 = load float, ptr %15, align 8
  %41 = getelementptr inbounds i8, ptr %38, i64 4
  %42 = load float, ptr %41, align 4
  %43 = load float, ptr %16, align 8
  %44 = fmul float %42, %43
  %45 = tail call float @llvm.fmuladd.f32(float %39, float %40, float %44)
  %46 = getelementptr inbounds i8, ptr %38, i64 8
  %47 = load float, ptr %46, align 4
  %48 = load float, ptr %14, align 8
  %49 = tail call float @llvm.fmuladd.f32(float %47, float %48, float %45)
  %50 = fptoui float %49 to i8
  %51 = getelementptr inbounds i8, ptr %2, i64 %indvars.iv98
  store i8 %50, ptr %51, align 1
  %indvars.iv.next99 = add nuw nsw i64 %indvars.iv98, 1
  %indvars.iv.next101 = add nuw nsw i64 %indvars.iv100, 3
  %52 = load i32, ptr %10, align 8
  %53 = sext i32 %52 to i64
  %54 = icmp slt i64 %indvars.iv.next99, %53
  br i1 %54, label %37, label %.loopexit, !llvm.loop !25

55:                                               ; preds = %3
  br i1 %9, label %.preheader64, label %.preheader65

.preheader65:                                     ; preds = %55
  br i1 %12, label %.lr.ph, label %.loopexit

.lr.ph:                                           ; preds = %.preheader65
  %56 = getelementptr inbounds i8, ptr %0, i64 336
  %57 = getelementptr inbounds i8, ptr %0, i64 352
  %58 = getelementptr inbounds i8, ptr %0, i64 344
  br label %91

.preheader64:                                     ; preds = %55
  br i1 %12, label %.lr.ph70, label %.loopexit

.preheader62:                                     ; preds = %.lr.ph70
  %59 = icmp sgt i32 %66, 0
  br i1 %59, label %.lr.ph73, label %.loopexit

.lr.ph73:                                         ; preds = %.preheader62
  %60 = getelementptr inbounds i8, ptr %0, i64 336
  %61 = getelementptr inbounds i8, ptr %0, i64 352
  %62 = getelementptr inbounds i8, ptr %0, i64 344
  br label %70

.lr.ph70:                                         ; preds = %.preheader64, %.lr.ph70
  %indvars.iv88 = phi i64 [ %indvars.iv.next89, %.lr.ph70 ], [ 0, %.preheader64 ]
  %63 = getelementptr inbounds i32, ptr %1, i64 %indvars.iv88
  %64 = load i32, ptr %63, align 4
  %65 = xor i32 %64, -2147483648
  store i32 %65, ptr %63, align 4
  %indvars.iv.next89 = add nuw nsw i64 %indvars.iv88, 1
  %66 = load i32, ptr %10, align 8
  %67 = mul nsw i32 %66, 3
  %68 = sext i32 %67 to i64
  %69 = icmp slt i64 %indvars.iv.next89, %68
  br i1 %69, label %.lr.ph70, label %.preheader62, !llvm.loop !26

70:                                               ; preds = %.lr.ph73, %70
  %indvars.iv93 = phi i64 [ 0, %.lr.ph73 ], [ %indvars.iv.next94, %70 ]
  %indvars.iv91 = phi i64 [ 0, %.lr.ph73 ], [ %indvars.iv.next92, %70 ]
  %71 = getelementptr inbounds i32, ptr %1, i64 %indvars.iv91
  %72 = load i32, ptr %71, align 4
  %73 = sitofp i32 %72 to float
  %74 = load float, ptr %61, align 8
  %75 = getelementptr inbounds i8, ptr %71, i64 4
  %76 = load i32, ptr %75, align 4
  %77 = sitofp i32 %76 to float
  %78 = load float, ptr %62, align 8
  %79 = fmul float %78, %77
  %80 = tail call float @llvm.fmuladd.f32(float %73, float %74, float %79)
  %81 = getelementptr inbounds i8, ptr %71, i64 8
  %82 = load i32, ptr %81, align 4
  %83 = sitofp i32 %82 to float
  %84 = load float, ptr %60, align 8
  %85 = tail call float @llvm.fmuladd.f32(float %83, float %84, float %80)
  %86 = fptosi float %85 to i32
  %87 = getelementptr inbounds i32, ptr %2, i64 %indvars.iv93
  store i32 %86, ptr %87, align 4
  %indvars.iv.next94 = add nuw nsw i64 %indvars.iv93, 1
  %indvars.iv.next92 = add nuw nsw i64 %indvars.iv91, 3
  %88 = load i32, ptr %10, align 8
  %89 = sext i32 %88 to i64
  %90 = icmp slt i64 %indvars.iv.next94, %89
  br i1 %90, label %70, label %.loopexit, !llvm.loop !27

91:                                               ; preds = %.lr.ph, %91
  %indvars.iv83 = phi i64 [ 0, %.lr.ph ], [ %indvars.iv.next84, %91 ]
  %indvars.iv = phi i64 [ 0, %.lr.ph ], [ %indvars.iv.next, %91 ]
  %92 = getelementptr inbounds i32, ptr %1, i64 %indvars.iv
  %93 = load i32, ptr %92, align 4
  %94 = uitofp i32 %93 to float
  %95 = load float, ptr %57, align 8
  %96 = getelementptr inbounds i8, ptr %92, i64 4
  %97 = load i32, ptr %96, align 4
  %98 = uitofp i32 %97 to float
  %99 = load float, ptr %58, align 8
  %100 = fmul float %99, %98
  %101 = tail call float @llvm.fmuladd.f32(float %94, float %95, float %100)
  %102 = getelementptr inbounds i8, ptr %92, i64 8
  %103 = load i32, ptr %102, align 4
  %104 = uitofp i32 %103 to float
  %105 = load float, ptr %56, align 8
  %106 = tail call float @llvm.fmuladd.f32(float %104, float %105, float %101)
  %107 = fpext float %106 to double
  %108 = fmul double %107, 0x3E70000000000000
  %109 = fptoui double %108 to i8
  %110 = getelementptr inbounds i8, ptr %2, i64 %indvars.iv83
  store i8 %109, ptr %110, align 1
  %indvars.iv.next84 = add nuw nsw i64 %indvars.iv83, 1
  %indvars.iv.next = add nuw nsw i64 %indvars.iv, 3
  %111 = load i32, ptr %10, align 8
  %112 = sext i32 %111 to i64
  %113 = icmp slt i64 %indvars.iv.next84, %112
  br i1 %113, label %91, label %.loopexit, !llvm.loop !28

.loopexit:                                        ; preds = %91, %70, %37, %20, %.preheader64, %.preheader65, %.preheader62, %.preheader60, %.preheader
  ret void
}